target datalayout = "e-m:e-p270:32:32-p271:32:32-p272:64:64-i64:64-i128:128-f80:128-n8:16:32:64-S128"
target triple = "x86_64-pc-linux-gnu"

%"class.glslang::TPoolAllocator" = type { i64, i64, i64, i64, i64, ptr, ptr, %"class.std::vector", i32, i64 }
%"class.std::vector" = type { %"struct.std::_Vector_base" }
%"struct.std::_Vector_base" = type { %"struct.std::_Vector_base<glslang::TPoolAllocator::tAllocState, std::allocator<glslang::TPoolAllocator::tAllocState>>::_Vector_impl" }
%"struct.std::_Vector_base<glslang::TPoolAllocator::tAllocState, std::allocator<glslang::TPoolAllocator::tAllocState>>::_Vector_impl" = type { %"struct.std::_Vector_base<glslang::TPoolAllocator::tAllocState, std::allocator<glslang::TPoolAllocator::tAllocState>>::_Vector_impl_data" }
%"struct.std::_Vector_base<glslang::TPoolAllocator::tAllocState, std::allocator<glslang::TPoolAllocator::tAllocState>>::_Vector_impl_data" = type { ptr, ptr, ptr }
%"struct.glslang::TPoolAllocator::tAllocState" = type { i64, ptr }
%"struct.glslang::TPoolAllocator::tHeader" = type { ptr, i64 }
%"class.__gnu_cxx::__normal_iterator" = type { ptr }

; Function Attrs: mustprogress nounwind uwtable
define linkonce_odr void @_ZNSt15__new_allocatorIN7glslang14TPoolAllocator11tAllocStateEE7destroyIS2_EEvPT_(ptr noundef nonnull align 1 dereferenceable(1) %0, ptr noundef %1) #0 comdat align 2 {
  %3 = alloca ptr, align 8
  %4 = alloca ptr, align 8
  store ptr %0, ptr %3, align 8
  store ptr %1, ptr %4, align 8
  ret void
}

; Function Attrs: mustprogress nounwind uwtable
define linkonce_odr void @_ZN9__gnu_cxx17__normal_iteratorIPN7glslang14TPoolAllocator11tAllocStateESt6vectorIS3_SaIS3_EEEC2ERKS4_(ptr noundef nonnull align 8 dereferenceable(8) %0, ptr noundef nonnull align 8 dereferenceable(8) %1) unnamed_addr #0 comdat align 2 {
  %3 = alloca ptr, align 8
  %4 = alloca ptr, align 8
  store ptr %0, ptr %3, align 8
  store ptr %1, ptr %4, align 8
  %5 = load ptr, ptr %3, align 8
  %6 = getelementptr inbounds %"class.__gnu_cxx::__normal_iterator", ptr %5, i32 0, i32 0
  %7 = load ptr, ptr %4, align 8
  %8 = load ptr, ptr %7, align 8
  store ptr %8, ptr %6, align 8
  ret void
}

; Function Attrs: mustprogress nounwind uwtable
define linkonce_odr void @_ZNSt16allocator_traitsISaIN7glslang14TPoolAllocator11tAllocStateEEE7destroyIS2_EEvRS3_PT_(ptr noundef nonnull align 1 dereferenceable(1) %0, ptr noundef %1) #0 comdat align 2 {
  %3 = alloca ptr, align 8
  %4 = alloca ptr, align 8
  store ptr %0, ptr %3, align 8
  store ptr %1, ptr %4, align 8
  %5 = load ptr, ptr %3, align 8
  %6 = load ptr, ptr %4, align 8
  call void @_ZNSt15__new_allocatorIN7glslang14TPoolAllocator11tAllocStateEE7destroyIS2_EEvPT_(ptr noundef nonnull align 1 dereferenceable(1) %5, ptr noundef %6) #4
  ret void
}

; Function Attrs: mustprogress nounwind uwtable
define linkonce_odr noundef nonnull align 8 dereferenceable(16) ptr @_ZNK9__gnu_cxx17__normal_iteratorIPN7glslang14TPoolAllocator11tAllocStateESt6vectorIS3_SaIS3_EEEdeEv(ptr noundef nonnull align 8 dereferenceable(8) %0) #0 comdat align 2 {
  %2 = alloca ptr, align 8
  store ptr %0, ptr %2, align 8
  %3 = load ptr, ptr %2, align 8
  %4 = getelementptr inbounds %"class.__gnu_cxx::__normal_iterator", ptr %3, i32 0, i32 0
  %5 = load ptr, ptr %4, align 8
  ret ptr %5
}

; Function Attrs: mustprogress nounwind uwtable
define linkonce_odr ptr @_ZNK9__gnu_cxx17__normal_iteratorIPN7glslang14TPoolAllocator11tAllocStateESt6vectorIS3_SaIS3_EEEmiEl(ptr noundef nonnull align 8 dereferenceable(8) %0, i64 noundef %1) #0 comdat align 2 {
  %3 = alloca %"class.__gnu_cxx::__normal_iterator", align 8
  %4 = alloca ptr, align 8
  %5 = alloca i64, align 8
  %6 = alloca ptr, align 8
  store ptr %0, ptr %4, align 8
  store i64 %1, ptr %5, align 8
  %7 = load ptr, ptr %4, align 8
  %8 = getelementptr inbounds %"class.__gnu_cxx::__normal_iterator", ptr %7, i32 0, i32 0
  %9 = load ptr, ptr %8, align 8
  %10 = load i64, ptr %5, align 8
  %11 = sub i64 0, %10
  %12 = getelementptr inbounds %"struct.glslang::TPoolAllocator::tAllocState", ptr %9, i64 %11
  store ptr %12, ptr %6, align 8
  call void @_ZN9__gnu_cxx17__normal_iteratorIPN7glslang14TPoolAllocator11tAllocStateESt6vectorIS3_SaIS3_EEEC2ERKS4_(ptr noundef nonnull align 8 dereferenceable(8) %3, ptr noundef nonnull align 8 dereferenceable(8) %6) #4
  %13 = getelementptr inbounds %"class.__gnu_cxx::__normal_iterator", ptr %3, i32 0, i32 0
  %14 = load ptr, ptr %13, align 8
  ret ptr %14
}

; Function Attrs: mustprogress nounwind uwtable
define linkonce_odr ptr @_ZNSt6vectorIN7glslang14TPoolAllocator11tAllocStateESaIS2_EE3endEv(ptr noundef nonnull align 8 dereferenceable(24) %0) #0 comdat align 2 {
  %2 = alloca %"class.__gnu_cxx::__normal_iterator", align 8
  %3 = alloca ptr, align 8
  store ptr %0, ptr %3, align 8
  %4 = load ptr, ptr %3, align 8
  %5 = getelementptr inbounds %"struct.std::_Vector_base", ptr %4, i32 0, i32 0
  %6 = getelementptr inbounds %"struct.std::_Vector_base<glslang::TPoolAllocator::tAllocState, std::allocator<glslang::TPoolAllocator::tAllocState>>::_Vector_impl_data", ptr %5, i32 0, i32 1
  call void @_ZN9__gnu_cxx17__normal_iteratorIPN7glslang14TPoolAllocator11tAllocStateESt6vectorIS3_SaIS3_EEEC2ERKS4_(ptr noundef nonnull align 8 dereferenceable(8) %2, ptr noundef nonnull align 8 dereferenceable(8) %6) #4
  %7 = getelementptr inbounds %"class.__gnu_cxx::__normal_iterator", ptr %2, i32 0, i32 0
  %8 = load ptr, ptr %7, align 8
  ret ptr %8
}

; Function Attrs: mustprogress nounwind uwtable
define linkonce_odr void @_ZNSt6vectorIN7glslang14TPoolAllocator11tAllocStateESaIS2_EE8pop_backEv(ptr noundef nonnull align 8 dereferenceable(24) %0) #0 comdat align 2 {
  %2 = alloca ptr, align 8
  store ptr %0, ptr %2, align 8
  %3 = load ptr, ptr %2, align 8
  %4 = getelementptr inbounds %"struct.std::_Vector_base", ptr %3, i32 0, i32 0
  %5 = getelementptr inbounds %"struct.std::_Vector_base<glslang::TPoolAllocator::tAllocState, std::allocator<glslang::TPoolAllocator::tAllocState>>::_Vector_impl_data", ptr %4, i32 0, i32 1
  %6 = load ptr, ptr %5, align 8
  %7 = getelementptr inbounds %"struct.glslang::TPoolAllocator::tAllocState", ptr %6, i32 -1
  store ptr %7, ptr %5, align 8
  %8 = getelementptr inbounds %"struct.std::_Vector_base", ptr %3, i32 0, i32 0
  %9 = getelementptr inbounds %"struct.std::_Vector_base", ptr %3, i32 0, i32 0
  %10 = getelementptr inbounds %"struct.std::_Vector_base<glslang::TPoolAllocator::tAllocState, std::allocator<glslang::TPoolAllocator::tAllocState>>::_Vector_impl_data", ptr %9, i32 0, i32 1
  %11 = load ptr, ptr %10, align 8
  call void @_ZNSt16allocator_traitsISaIN7glslang14TPoolAllocator11tAllocStateEEE7destroyIS2_EEvRS3_PT_(ptr noundef nonnull align 1 dereferenceable(1) %8, ptr noundef %11) #4
  ret void
}

; Function Attrs: mustprogress nounwind uwtable
define linkonce_odr void @_ZN7glslang14TPoolAllocator7tHeaderD2Ev(ptr noundef nonnull align 8 dereferenceable(16) %0) unnamed_addr #0 comdat align 2 {
  %2 = alloca ptr, align 8
  store ptr %0, ptr %2, align 8
  ret void
}

; Function Attrs: mustprogress nounwind uwtable
define linkonce_odr noundef nonnull align 8 dereferenceable(16) ptr @_ZNSt6vectorIN7glslang14TPoolAllocator11tAllocStateESaIS2_EE4backEv(ptr noundef nonnull align 8 dereferenceable(24) %0) #0 comdat align 2 {
  %2 = alloca ptr, align 8
  %3 = alloca %"class.__gnu_cxx::__normal_iterator", align 8
  %4 = alloca %"class.__gnu_cxx::__normal_iterator", align 8
  store ptr %0, ptr %2, align 8
  %5 = load ptr, ptr %2, align 8
  %6 = call ptr @_ZNSt6vectorIN7glslang14TPoolAllocator11tAllocStateESaIS2_EE3endEv(ptr noundef nonnull align 8 dereferenceable(24) %5) #4
  %7 = getelementptr inbounds %"class.__gnu_cxx::__normal_iterator", ptr %4, i32 0, i32 0
  store ptr %6, ptr %7, align 8
  %8 = call ptr @_ZNK9__gnu_cxx17__normal_iteratorIPN7glslang14TPoolAllocator11tAllocStateESt6vectorIS3_SaIS3_EEEmiEl(ptr noundef nonnull align 8 dereferenceable(8) %4, i64 noundef 1) #4
  %9 = getelementptr inbounds %"class.__gnu_cxx::__normal_iterator", ptr %3, i32 0, i32 0
  store ptr %8, ptr %9, align 8
  %10 = call noundef nonnull align 8 dereferenceable(16) ptr @_ZNK9__gnu_cxx17__normal_iteratorIPN7glslang14TPoolAllocator11tAllocStateESt6vectorIS3_SaIS3_EEEdeEv(ptr noundef nonnull align 8 dereferenceable(8) %3) #4
  ret ptr %10
}

; Function Attrs: mustprogress nounwind uwtable
define void @_ZN7glslang14TPoolAllocator3popEv(ptr noundef nonnull align 8 dereferenceable(96) %0) #0 align 2 {
  %2 = alloca ptr, align 8
  %3 = alloca ptr, align 8
  %4 = alloca ptr, align 8
  %5 = alloca i64, align 8
  store ptr %0, ptr %2, align 8
  %6 = load ptr, ptr %2, align 8
  %7 = getelementptr inbounds %"class.glslang::TPoolAllocator", ptr %6, i32 0, i32 7
  %8 = call noundef i64 @_ZNKSt6vectorIN7glslang14TPoolAllocator11tAllocStateESaIS2_EE4sizeEv(ptr noundef nonnull align 8 dereferenceable(24) %7) #4
  %9 = icmp ult i64 %8, 1
  br i1 %9, label %10, label %11

10:                                               ; preds = %1
  br label %59

11:                                               ; preds = %1
  %12 = getelementptr inbounds %"class.glslang::TPoolAllocator", ptr %6, i32 0, i32 7
  %13 = call noundef nonnull align 8 dereferenceable(16) ptr @_ZNSt6vectorIN7glslang14TPoolAllocator11tAllocStateESaIS2_EE4backEv(ptr noundef nonnull align 8 dereferenceable(24) %12) #4
  %14 = getelementptr inbounds %"struct.glslang::TPoolAllocator::tAllocState", ptr %13, i32 0, i32 1
  %15 = load ptr, ptr %14, align 8
  store ptr %15, ptr %3, align 8
  %16 = getelementptr inbounds %"class.glslang::TPoolAllocator", ptr %6, i32 0, i32 7
  %17 = call noundef nonnull align 8 dereferenceable(16) ptr @_ZNSt6vectorIN7glslang14TPoolAllocator11tAllocStateESaIS2_EE4backEv(ptr noundef nonnull align 8 dereferenceable(24) %16) #4
  %18 = getelementptr inbounds %"struct.glslang::TPoolAllocator::tAllocState", ptr %17, i32 0, i32 0
  %19 = load i64, ptr %18, align 8
  %20 = getelementptr inbounds %"class.glslang::TPoolAllocator", ptr %6, i32 0, i32 4
  store i64 %19, ptr %20, align 8
  br label %21

21:                                               ; preds = %54, %11
  %22 = getelementptr inbounds %"class.glslang::TPoolAllocator", ptr %6, i32 0, i32 6
  %23 = load ptr, ptr %22, align 8
  %24 = load ptr, ptr %3, align 8
  %25 = icmp ne ptr %23, %24
  br i1 %25, label %26, label %57

26:                                               ; preds = %21
  %27 = getelementptr inbounds %"class.glslang::TPoolAllocator", ptr %6, i32 0, i32 6
  %28 = load ptr, ptr %27, align 8
  %29 = getelementptr inbounds %"struct.glslang::TPoolAllocator::tHeader", ptr %28, i32 0, i32 0
  %30 = load ptr, ptr %29, align 8
  store ptr %30, ptr %4, align 8
  %31 = getelementptr inbounds %"class.glslang::TPoolAllocator", ptr %6, i32 0, i32 6
  %32 = load ptr, ptr %31, align 8
  %33 = getelementptr inbounds %"struct.glslang::TPoolAllocator::tHeader", ptr %32, i32 0, i32 1
  %34 = load i64, ptr %33, align 8
  store i64 %34, ptr %5, align 8
  %35 = getelementptr inbounds %"class.glslang::TPoolAllocator", ptr %6, i32 0, i32 6
  %36 = load ptr, ptr %35, align 8
  call void @_ZN7glslang14TPoolAllocator7tHeaderD2Ev(ptr noundef nonnull align 8 dereferenceable(16) %36) #4
  %37 = load i64, ptr %5, align 8
  %38 = icmp ugt i64 %37, 1
  br i1 %38, label %39, label %45

39:                                               ; preds = %26
  %40 = getelementptr inbounds %"class.glslang::TPoolAllocator", ptr %6, i32 0, i32 6
  %41 = load ptr, ptr %40, align 8
  %42 = icmp eq ptr %41, null
  br i1 %42, label %44, label %43

43:                                               ; preds = %39
  call void @_ZdaPv(ptr noundef %41) #7
  br label %44

44:                                               ; preds = %43, %39
  br label %54

45:                                               ; preds = %26
  %46 = getelementptr inbounds %"class.glslang::TPoolAllocator", ptr %6, i32 0, i32 5
  %47 = load ptr, ptr %46, align 8
  %48 = getelementptr inbounds %"class.glslang::TPoolAllocator", ptr %6, i32 0, i32 6
  %49 = load ptr, ptr %48, align 8
  %50 = getelementptr inbounds %"struct.glslang::TPoolAllocator::tHeader", ptr %49, i32 0, i32 0
  store ptr %47, ptr %50, align 8
  %51 = getelementptr inbounds %"class.glslang::TPoolAllocator", ptr %6, i32 0, i32 6
  %52 = load ptr, ptr %51, align 8
  %53 = getelementptr inbounds %"class.glslang::TPoolAllocator", ptr %6, i32 0, i32 5
  store ptr %52, ptr %53, align 8
  br label %54

54:                                               ; preds = %45, %44
  %55 = load ptr, ptr %4, align 8
  %56 = getelementptr inbounds %"class.glslang::TPoolAllocator", ptr %6, i32 0, i32 6
  store ptr %55, ptr %56, align 8
  br label %21, !llvm.loop !9

57:                                               ; preds = %21
  %58 = getelementptr inbounds %"class.glslang::TPoolAllocator", ptr %6, i32 0, i32 7
  call void @_ZNSt6vectorIN7glslang14TPoolAllocator11tAllocStateESaIS2_EE8pop_backEv(ptr noundef nonnull align 8 dereferenceable(24) %58) #4
  br label %59

59:                                               ; preds = %57, %10
  ret void
}

; Function Attrs: mustprogress nounwind uwtable
define linkonce_odr noundef i64 @_ZNKSt6vectorIN7glslang14TPoolAllocator11tAllocStateESaIS2_EE4sizeEv(ptr noundef nonnull align 8 dereferenceable(24) %0) #0 comdat align 2 {
  %2 = alloca ptr, align 8
  store ptr %0, ptr %2, align 8
  %3 = load ptr, ptr %2, align 8
  %4 = getelementptr inbounds %"struct.std::_Vector_base", ptr %3, i32 0, i32 0
  %5 = getelementptr inbounds %"struct.std::_Vector_base<glslang::TPoolAllocator::tAllocState, std::allocator<glslang::TPoolAllocator::tAllocState>>::_Vector_impl_data", ptr %4, i32 0, i32 1
  %6 = load ptr, ptr %5, align 8
  %7 = getelementptr inbounds %"struct.std::_Vector_base", ptr %3, i32 0, i32 0
  %8 = getelementptr inbounds %"struct.std::_Vector_base<glslang::TPoolAllocator::tAllocState, std::allocator<glslang::TPoolAllocator::tAllocState>>::_Vector_impl_data", ptr %7, i32 0, i32 0
  %9 = load ptr, ptr %8, align 8
  %10 = ptrtoint ptr %6 to i64
  %11 = ptrtoint ptr %9 to i64
  %12 = sub i64 %10, %11
  %13 = sdiv exact i64 %12, 16
  ret i64 %13
}

; Function Attrs: mustprogress nounwind uwtable
define void @_ZN7glslang14TPoolAllocator6popAllEv(ptr noundef nonnull align 8 dereferenceable(96) %0) #0 align 2 {
  %2 = alloca ptr, align 8
  store ptr %0, ptr %2, align 8
  %3 = load ptr, ptr %2, align 8
  br label %4

4:                                                ; preds = %8, %1
  %5 = getelementptr inbounds %"class.glslang::TPoolAllocator", ptr %3, i32 0, i32 7
  %6 = call noundef i64 @_ZNKSt6vectorIN7glslang14TPoolAllocator11tAllocStateESaIS2_EE4sizeEv(ptr noundef nonnull align 8 dereferenceable(24) %5) #4
  %7 = icmp ugt i64 %6, 0
  br i1 %7, label %8, label %9

8:                                                ; preds = %4
  call void @_ZN7glslang14TPoolAllocator3popEv(ptr noundef nonnull align 8 dereferenceable(96) %3)
  br label %4, !llvm.loop !10

9:                                                ; preds = %4
  ret void
}