; Function Attrs: mustprogress nounwind uwtable
define void @_ZN7glslang14TPoolAllocator6popAllEv(ptr nocapture noundef nonnull align 8 dereferenceable(96) %0) local_unnamed_addr #0 align 2 {
  %2 = getelementptr inbounds i8, ptr %0, i64 56
  %3 = getelementptr inbounds i8, ptr %0, i64 64
  %4 = load ptr, ptr %3, align 8
  %5 = load ptr, ptr %2, align 8
  %.not1 = icmp eq ptr %4, %5
  br i1 %.not1, label %._crit_edge, label %.lr.ph

.lr.ph:                                           ; preds = %1
  %6 = getelementptr inbounds i8, ptr %0, i64 32
  %7 = getelementptr inbounds i8, ptr %0, i64 48
  %8 = getelementptr inbounds i8, ptr %0, i64 40
  br label %9

9:                                                ; preds = %.lr.ph, %_ZN7glslang14TPoolAllocator3popEv.exit
  %.pre2 = phi ptr [ %5, %.lr.ph ], [ %.pre3, %_ZN7glslang14TPoolAllocator3popEv.exit ]
  %10 = phi ptr [ %5, %.lr.ph ], [ %31, %_ZN7glslang14TPoolAllocator3popEv.exit ]
  %11 = phi ptr [ %4, %.lr.ph ], [ %32, %_ZN7glslang14TPoolAllocator3popEv.exit ]
  %12 = icmp eq ptr %11, %10
  br i1 %12, label %_ZN7glslang14TPoolAllocator3popEv.exit, label %13

13:                                               ; preds = %9
  %14 = getelementptr inbounds i8, ptr %11, i64 -16
  %15 = getelementptr inbounds i8, ptr %11, i64 -8
  %16 = load ptr, ptr %15, align 8
  %17 = load i64, ptr %14, align 8
  store i64 %17, ptr %6, align 8
  %18 = load ptr, ptr %7, align 8
  %.not4.i = icmp eq ptr %18, %16
  br i1 %.not4.i, label %._crit_edge.i, label %.lr.ph.i

.lr.ph.i:                                         ; preds = %13, %28
  %19 = phi ptr [ %20, %28 ], [ %18, %13 ]
  %20 = load ptr, ptr %19, align 8
  %21 = getelementptr inbounds i8, ptr %19, i64 8
  %22 = load i64, ptr %21, align 8
  %23 = icmp ugt i64 %22, 1
  br i1 %23, label %24, label %25

24:                                               ; preds = %.lr.ph.i
  tail call void @_ZdaPv(ptr noundef nonnull %19) #13
  br label %28

25:                                               ; preds = %.lr.ph.i
  %26 = load ptr, ptr %8, align 8
  store ptr %26, ptr %19, align 8
  %27 = load ptr, ptr %7, align 8
  store ptr %27, ptr %8, align 8
  br label %28

28:                                               ; preds = %25, %24
  store ptr %20, ptr %7, align 8
  %.not.i = icmp eq ptr %20, %16
  br i1 %.not.i, label %._crit_edge.loopexit.i, label %.lr.ph.i, !llvm.loop !9

._crit_edge.loopexit.i:                           ; preds = %28
  %.pre.i = load ptr, ptr %3, align 8
  %.pre.pre = load ptr, ptr %2, align 8
  br label %._crit_edge.i

._crit_edge.i:                                    ; preds = %._crit_edge.loopexit.i, %13
  %.pre = phi ptr [ %.pre.pre, %._crit_edge.loopexit.i ], [ %.pre2, %13 ]
  %29 = phi ptr [ %.pre.i, %._crit_edge.loopexit.i ], [ %11, %13 ]
  %30 = getelementptr inbounds i8, ptr %29, i64 -16
  store ptr %30, ptr %3, align 8
  br label %_ZN7glslang14TPoolAllocator3popEv.exit

_ZN7glslang14TPoolAllocator3popEv.exit:           ; preds = %9, %._crit_edge.i
  %.pre3 = phi ptr [ %.pre2, %9 ], [ %.pre, %._crit_edge.i ]
  %31 = phi ptr [ %10, %9 ], [ %.pre, %._crit_edge.i ]
  %32 = phi ptr [ %11, %9 ], [ %30, %._crit_edge.i ]
  %.not = icmp eq ptr %32, %31
  br i1 %.not, label %._crit_edge, label %9, !llvm.loop !10

._crit_edge:                                      ; preds = %_ZN7glslang14TPoolAllocator3popEv.exit, %1
  ret void
}